target datalayout = "e-m:e-p270:32:32-p271:32:32-p272:64:64-i64:64-i128:128-f80:128-n8:16:32:64-S128"
target triple = "x86_64-pc-linux-gnu"

%struct._object = type { %union.anon, ptr }
%union.anon = type { i64 }
%struct.Py_buffer = type { ptr, ptr, i64, i64, i32, i32, ptr, ptr, ptr, ptr, ptr }
%struct.PyVarObject = type { %struct._object, i64 }

; Function Attrs: inlinehint nounwind uwtable
define internal i64 @Py_SIZE(ptr noundef %0) #4 {
  %2 = alloca ptr, align 8
  store ptr %0, ptr %2, align 8, !tbaa !3
  %3 = load ptr, ptr %2, align 8, !tbaa !3
  %4 = getelementptr inbounds nuw %struct.PyVarObject, ptr %3, i32 0, i32 1
  %5 = load i64, ptr %4, align 8, !tbaa !48
  ret i64 %5
}

; Function Attrs: nounwind uwtable
define internal ptr @binascii_b2a_hex_impl(ptr noundef %0, ptr noundef %1, ptr noundef %2, i32 noundef %3) #0 {
  %5 = alloca ptr, align 8
  %6 = alloca ptr, align 8
  %7 = alloca ptr, align 8
  %8 = alloca i32, align 4
  store ptr %0, ptr %5, align 8, !tbaa !3
  store ptr %1, ptr %6, align 8, !tbaa !8
  store ptr %2, ptr %7, align 8, !tbaa !3
  store i32 %3, ptr %8, align 4, !tbaa !13
  %9 = load ptr, ptr %6, align 8, !tbaa !8
  %10 = getelementptr inbounds nuw %struct.Py_buffer, ptr %9, i32 0, i32 0
  %11 = load ptr, ptr %10, align 8, !tbaa !24
  %12 = load ptr, ptr %6, align 8, !tbaa !8
  %13 = getelementptr inbounds nuw %struct.Py_buffer, ptr %12, i32 0, i32 2
  %14 = load i64, ptr %13, align 8, !tbaa !25
  %15 = load ptr, ptr %7, align 8, !tbaa !3
  %16 = load i32, ptr %8, align 4, !tbaa !13
  %17 = call ptr @_Py_strhex_bytes_with_sep(ptr noundef %11, i64 noundef %14, ptr noundef %15, i32 noundef %16)
  ret ptr %17
}

; Function Attrs: inlinehint nounwind uwtable
define internal i64 @PyTuple_GET_SIZE(ptr noundef %0) #4 {
  %2 = alloca ptr, align 8
  %3 = alloca ptr, align 8
  store ptr %0, ptr %2, align 8, !tbaa !3
  call void @llvm.lifetime.start.p0(i64 8, ptr %3) #7
  %4 = load ptr, ptr %2, align 8, !tbaa !3
  store ptr %4, ptr %3, align 8, !tbaa !8
  %5 = load ptr, ptr %3, align 8, !tbaa !8
  %6 = call i64 @Py_SIZE(ptr noundef %5)
  call void @llvm.lifetime.end.p0(i64 8, ptr %3) #7
  ret i64 %6
}

; Function Attrs: nounwind uwtable
define internal ptr @binascii_b2a_hex(ptr noundef %0, ptr noundef %1, i64 noundef %2, ptr noundef %3) #0 {
  %5 = alloca ptr, align 8
  %6 = alloca ptr, align 8
  %7 = alloca i64, align 8
  %8 = alloca ptr, align 8
  %9 = alloca ptr, align 8
  %10 = alloca [3 x ptr], align 16
  %11 = alloca i64, align 8
  %12 = alloca %struct.Py_buffer, align 8
  %13 = alloca ptr, align 8
  %14 = alloca i32, align 4
  store ptr %0, ptr %5, align 8, !tbaa !3
  store ptr %1, ptr %6, align 8, !tbaa !16
  store i64 %2, ptr %7, align 8, !tbaa !23
  store ptr %3, ptr %8, align 8, !tbaa !3
  call void @llvm.lifetime.start.p0(i64 8, ptr %9) #7
  store ptr null, ptr %9, align 8, !tbaa !3
  call void @llvm.lifetime.start.p0(i64 24, ptr %10) #7
  call void @llvm.lifetime.start.p0(i64 8, ptr %11) #7
  %15 = load i64, ptr %7, align 8, !tbaa !23
  %16 = load ptr, ptr %8, align 8, !tbaa !3
  %17 = icmp ne ptr %16, null
  br i1 %17, label %18, label %21

18:                                               ; preds = %4
  %19 = load ptr, ptr %8, align 8, !tbaa !3
  %20 = call i64 @PyTuple_GET_SIZE(ptr noundef %19)
  br label %22

21:                                               ; preds = %4
  br label %22

22:                                               ; preds = %21, %18
  %23 = phi i64 [ %20, %18 ], [ 0, %21 ]
  %24 = add i64 %15, %23
  %25 = sub i64 %24, 1
  store i64 %25, ptr %11, align 8, !tbaa !23
  call void @llvm.lifetime.start.p0(i64 80, ptr %12) #7
  call void @llvm.memset.p0.i64(ptr align 8 %12, i8 0, i64 80, i1 false)
  call void @llvm.lifetime.start.p0(i64 8, ptr %13) #7
  store ptr null, ptr %13, align 8, !tbaa !3
  call void @llvm.lifetime.start.p0(i64 4, ptr %14) #7
  store i32 1, ptr %14, align 4, !tbaa !13
  %26 = load ptr, ptr %8, align 8, !tbaa !3
  %27 = icmp eq ptr %26, null
  br i1 %27, label %28, label %39

28:                                               ; preds = %22
  %29 = load i64, ptr %7, align 8, !tbaa !23
  %30 = icmp sle i64 1, %29
  br i1 %30, label %31, label %39

31:                                               ; preds = %28
  %32 = load i64, ptr %7, align 8, !tbaa !23
  %33 = icmp sle i64 %32, 3
  br i1 %33, label %34, label %39

34:                                               ; preds = %31
  %35 = load ptr, ptr %6, align 8, !tbaa !16
  %36 = icmp ne ptr %35, null
  br i1 %36, label %37, label %39

37:                                               ; preds = %34
  %38 = load ptr, ptr %6, align 8, !tbaa !16
  br label %45

39:                                               ; preds = %34, %31, %28, %22
  %40 = load ptr, ptr %6, align 8, !tbaa !16
  %41 = load i64, ptr %7, align 8, !tbaa !23
  %42 = load ptr, ptr %8, align 8, !tbaa !3
  %43 = getelementptr inbounds [3 x ptr], ptr %10, i64 0, i64 0
  %44 = call ptr @_PyArg_UnpackKeywords(ptr noundef %40, i64 noundef %41, ptr noundef null, ptr noundef %42, ptr noundef @binascii_b2a_hex._parser, i32 noundef 1, i32 noundef 3, i32 noundef 0, i32 noundef 0, ptr noundef %43)
  br label %45

45:                                               ; preds = %39, %37
  %46 = phi ptr [ %38, %37 ], [ %44, %39 ]
  store ptr %46, ptr %6, align 8, !tbaa !16
  %47 = load ptr, ptr %6, align 8, !tbaa !16
  %48 = icmp ne ptr %47, null
  br i1 %48, label %50, label %49

49:                                               ; preds = %45
  br label %92

50:                                               ; preds = %45
  %51 = load ptr, ptr %6, align 8, !tbaa !16
  %52 = getelementptr ptr, ptr %51, i64 0
  %53 = load ptr, ptr %52, align 8, !tbaa !3
  %54 = call i32 @PyObject_GetBuffer(ptr noundef %53, ptr noundef %12, i32 noundef 0)
  %55 = icmp ne i32 %54, 0
  br i1 %55, label %56, label %57

56:                                               ; preds = %50
  br label %92

57:                                               ; preds = %50
  %58 = load i64, ptr %11, align 8, !tbaa !23
  %59 = icmp ne i64 %58, 0
  br i1 %59, label %61, label %60

60:                                               ; preds = %57
  br label %87

61:                                               ; preds = %57
  %62 = load ptr, ptr %6, align 8, !tbaa !16
  %63 = getelementptr ptr, ptr %62, i64 1
  %64 = load ptr, ptr %63, align 8, !tbaa !3
  %65 = icmp ne ptr %64, null
  br i1 %65, label %66, label %75

66:                                               ; preds = %61
  %67 = load ptr, ptr %6, align 8, !tbaa !16
  %68 = getelementptr ptr, ptr %67, i64 1
  %69 = load ptr, ptr %68, align 8, !tbaa !3
  store ptr %69, ptr %13, align 8, !tbaa !3
  %70 = load i64, ptr %11, align 8, !tbaa !23
  %71 = add i64 %70, -1
  store i64 %71, ptr %11, align 8, !tbaa !23
  %72 = icmp ne i64 %71, 0
  br i1 %72, label %74, label %73

73:                                               ; preds = %66
  br label %87

74:                                               ; preds = %66
  br label %75

75:                                               ; preds = %74, %61
  %76 = load ptr, ptr %6, align 8, !tbaa !16
  %77 = getelementptr ptr, ptr %76, i64 2
  %78 = load ptr, ptr %77, align 8, !tbaa !3
  %79 = call i32 @PyLong_AsInt(ptr noundef %78)
  store i32 %79, ptr %14, align 4, !tbaa !13
  %80 = load i32, ptr %14, align 4, !tbaa !13
  %81 = icmp eq i32 %80, -1
  br i1 %81, label %82, label %86

82:                                               ; preds = %75
  %83 = call ptr @PyErr_Occurred()
  %84 = icmp ne ptr %83, null
  br i1 %84, label %85, label %86

85:                                               ; preds = %82
  br label %92

86:                                               ; preds = %82, %75
  br label %87

87:                                               ; preds = %86, %73, %60
  %88 = load ptr, ptr %5, align 8, !tbaa !3
  %89 = load ptr, ptr %13, align 8, !tbaa !3
  %90 = load i32, ptr %14, align 4, !tbaa !13
  %91 = call ptr @binascii_b2a_hex_impl(ptr noundef %88, ptr noundef %12, ptr noundef %89, i32 noundef %90)
  store ptr %91, ptr %9, align 8, !tbaa !3
  br label %92

92:                                               ; preds = %87, %85, %56, %49
  %93 = getelementptr inbounds nuw %struct.Py_buffer, ptr %12, i32 0, i32 1
  %94 = load ptr, ptr %93, align 8, !tbaa !18
  %95 = icmp ne ptr %94, null
  br i1 %95, label %96, label %97

96:                                               ; preds = %92
  call void @PyBuffer_Release(ptr noundef %12)
  br label %97

97:                                               ; preds = %96, %92
  %98 = load ptr, ptr %9, align 8, !tbaa !3
  call void @llvm.lifetime.end.p0(i64 4, ptr %14) #7
  call void @llvm.lifetime.end.p0(i64 8, ptr %13) #7
  call void @llvm.lifetime.end.p0(i64 80, ptr %12) #7
  call void @llvm.lifetime.end.p0(i64 8, ptr %11) #7
  call void @llvm.lifetime.end.p0(i64 24, ptr %10) #7
  call void @llvm.lifetime.end.p0(i64 8, ptr %9) #7
  ret ptr %98
}